target datalayout = "e-m:e-p270:32:32-p271:32:32-p272:64:64-i64:64-i128:128-f80:128-n8:16:32:64-S128"
target triple = "x86_64-pc-linux-gnu"

%struct.SDL_DBusContext = type { ptr, ptr, ptr, ptr, ptr, ptr, ptr, ptr, ptr, ptr, ptr, ptr, ptr, ptr, ptr, ptr, ptr, ptr, ptr, ptr, ptr, ptr, ptr, ptr, ptr, ptr, ptr, ptr, ptr, ptr, ptr, ptr, ptr, ptr, ptr, ptr, ptr, ptr, ptr, ptr, ptr, ptr, ptr, ptr, ptr, ptr, ptr, ptr, ptr, ptr }

@rtkit_initialize_once = internal global i32 0, align 4
@rtkit_min_nice_level = internal global i32 -20, align 4
@rtkit_dbus_node = internal global ptr null, align 8
@rtkit_dbus_path = internal global ptr null, align 8
@rtkit_dbus_interface = internal global ptr null, align 8
@.str.1 = private unnamed_addr constant [30 x i8] c"MakeThreadHighPriorityWithPID\00", align 1
@rtkit_use_session_conn = internal global i8 0, align 1

; Function Attrs: nounwind uwtable
define internal ptr @get_rtkit_dbus_connection() #0 {
  %1 = alloca ptr, align 8
  %2 = alloca ptr, align 8
  %3 = alloca i32, align 4
  call void @llvm.lifetime.start.p0(i64 8, ptr %2) #5
  %4 = call ptr @SDL_DBus_GetContext()
  store ptr %4, ptr %2, align 8
  %5 = load ptr, ptr %2, align 8
  %6 = icmp ne ptr %5, null
  br i1 %6, label %7, label %20

7:                                                ; preds = %0
  %8 = load i8, ptr @rtkit_use_session_conn, align 1, !range !3, !noundef !4
  %9 = trunc i8 %8 to i1
  br i1 %9, label %10, label %14

10:                                               ; preds = %7
  %11 = load ptr, ptr %2, align 8
  %12 = getelementptr inbounds nuw %struct.SDL_DBusContext, ptr %11, i32 0, i32 0
  %13 = load ptr, ptr %12, align 8
  br label %18

14:                                               ; preds = %7
  %15 = load ptr, ptr %2, align 8
  %16 = getelementptr inbounds nuw %struct.SDL_DBusContext, ptr %15, i32 0, i32 1
  %17 = load ptr, ptr %16, align 8
  br label %18

18:                                               ; preds = %14, %10
  %19 = phi ptr [ %13, %10 ], [ %17, %14 ]
  store ptr %19, ptr %1, align 8
  store i32 1, ptr %3, align 4
  br label %21

20:                                               ; preds = %0
  store ptr null, ptr %1, align 8
  store i32 1, ptr %3, align 4
  br label %21

21:                                               ; preds = %20, %18
  call void @llvm.lifetime.end.p0(i64 8, ptr %2) #5
  %22 = load ptr, ptr %1, align 8
  ret ptr %22
}

; Function Attrs: nounwind uwtable
define internal zeroext i1 @rtkit_setpriority_nice(i32 noundef %0, i32 noundef %1) #0 {
  %3 = alloca i1, align 1
  %4 = alloca i32, align 4
  %5 = alloca i32, align 4
  %6 = alloca ptr, align 8
  %7 = alloca i64, align 8
  %8 = alloca i64, align 8
  %9 = alloca i32, align 4
  %10 = alloca i32, align 4
  store i32 %0, ptr %4, align 4
  store i32 %1, ptr %5, align 4
  call void @llvm.lifetime.start.p0(i64 8, ptr %6) #5
  call void @llvm.lifetime.start.p0(i64 8, ptr %7) #5
  %11 = call i32 @getpid() #5
  %12 = sext i32 %11 to i64
  store i64 %12, ptr %7, align 8
  call void @llvm.lifetime.start.p0(i64 8, ptr %8) #5
  %13 = load i32, ptr %4, align 4
  %14 = sext i32 %13 to i64
  store i64 %14, ptr %8, align 8
  call void @llvm.lifetime.start.p0(i64 4, ptr %9) #5
  %15 = load i32, ptr %5, align 4
  store i32 %15, ptr %9, align 4
  %16 = call i32 @pthread_once(ptr noundef @rtkit_initialize_once, ptr noundef @rtkit_initialize)
  %17 = call ptr @get_rtkit_dbus_connection()
  store ptr %17, ptr %6, align 8
  %18 = load i32, ptr %9, align 4
  %19 = load i32, ptr @rtkit_min_nice_level, align 4
  %20 = icmp slt i32 %18, %19
  br i1 %20, label %21, label %23

21:                                               ; preds = %2
  %22 = load i32, ptr @rtkit_min_nice_level, align 4
  store i32 %22, ptr %9, align 4
  br label %23

23:                                               ; preds = %21, %2
  %24 = load ptr, ptr %6, align 8
  %25 = icmp ne ptr %24, null
  br i1 %25, label %26, label %32

26:                                               ; preds = %23
  %27 = load ptr, ptr %6, align 8
  %28 = load ptr, ptr @rtkit_dbus_node, align 8
  %29 = load ptr, ptr @rtkit_dbus_path, align 8
  %30 = load ptr, ptr @rtkit_dbus_interface, align 8
  %31 = call zeroext i1 (ptr, ptr, ptr, ptr, ptr, ...) @SDL_DBus_CallMethodOnConnection(ptr noundef %27, ptr noundef %28, ptr noundef %29, ptr noundef %30, ptr noundef @.str.1, i32 noundef 116, ptr noundef %7, i32 noundef 116, ptr noundef %8, i32 noundef 105, ptr noundef %9, i32 noundef 0, i32 noundef 0)
  br i1 %31, label %33, label %32

32:                                               ; preds = %26, %23
  store i1 false, ptr %3, align 1
  store i32 1, ptr %10, align 4
  br label %34

33:                                               ; preds = %26
  store i1 true, ptr %3, align 1
  store i32 1, ptr %10, align 4
  br label %34

34:                                               ; preds = %33, %32
  call void @llvm.lifetime.end.p0(i64 4, ptr %9) #5
  call void @llvm.lifetime.end.p0(i64 8, ptr %8) #5
  call void @llvm.lifetime.end.p0(i64 8, ptr %7) #5
  call void @llvm.lifetime.end.p0(i64 8, ptr %6) #5
  %35 = load i1, ptr %3, align 1
  ret i1 %35
}