; Function Attrs: nounwind uwtable
define internal fastcc zeroext i1 @rtkit_setpriority_nice(i32 noundef %0, i32 noundef %1) unnamed_addr #0 {
  %3 = alloca i64, align 8
  %4 = alloca i64, align 8
  %5 = alloca i32, align 4
  call void @llvm.lifetime.start.p0(i64 8, ptr nonnull %3) #4
  %6 = tail call i32 @getpid() #4
  %7 = sext i32 %6 to i64
  store i64 %7, ptr %3, align 8
  call void @llvm.lifetime.start.p0(i64 8, ptr nonnull %4) #4
  %8 = sext i32 %0 to i64
  store i64 %8, ptr %4, align 8
  call void @llvm.lifetime.start.p0(i64 4, ptr nonnull %5) #4
  store i32 %1, ptr %5, align 4
  %9 = tail call i32 @pthread_once(ptr noundef nonnull @rtkit_initialize_once, ptr noundef nonnull @rtkit_initialize) #4
  %10 = tail call ptr @SDL_DBus_GetContext() #4
  %.not.i = icmp eq ptr %10, null
  br i1 %.not.i, label %get_rtkit_dbus_connection.exit, label %11

11:                                               ; preds = %2
  %.b5.i = load i1, ptr @rtkit_use_session_conn, align 1
  %.in.idx.i = select i1 %.b5.i, i64 0, i64 8
  %.in.i = getelementptr inbounds nuw i8, ptr %10, i64 %.in.idx.i
  %12 = load ptr, ptr %.in.i, align 8
  br label %get_rtkit_dbus_connection.exit

get_rtkit_dbus_connection.exit:                   ; preds = %2, %11
  %.0.i = phi ptr [ %12, %11 ], [ null, %2 ]
  %13 = load i32, ptr @rtkit_min_nice_level, align 4
  %14 = icmp slt i32 %1, %13
  br i1 %14, label %15, label %16

15:                                               ; preds = %get_rtkit_dbus_connection.exit
  store i32 %13, ptr %5, align 4
  br label %16

16:                                               ; preds = %15, %get_rtkit_dbus_connection.exit
  %.not = icmp eq ptr %.0.i, null
  br i1 %.not, label %22, label %17

17:                                               ; preds = %16
  %18 = load ptr, ptr @rtkit_dbus_node, align 8
  %19 = load ptr, ptr @rtkit_dbus_path, align 8
  %20 = load ptr, ptr @rtkit_dbus_interface, align 8
  %21 = call zeroext i1 (ptr, ptr, ptr, ptr, ptr, ...) @SDL_DBus_CallMethodOnConnection(ptr noundef nonnull %.0.i, ptr noundef %18, ptr noundef %19, ptr noundef %20, ptr noundef nonnull @.str.1, i32 noundef 116, ptr noundef nonnull %3, i32 noundef 116, ptr noundef nonnull %4, i32 noundef 105, ptr noundef nonnull %5, i32 noundef 0, i32 noundef 0) #4
  br label %22

22:                                               ; preds = %17, %16
  %.0 = phi i1 [ false, %16 ], [ %21, %17 ]
  call void @llvm.lifetime.end.p0(i64 4, ptr nonnull %5) #4
  call void @llvm.lifetime.end.p0(i64 8, ptr nonnull %4) #4
  call void @llvm.lifetime.end.p0(i64 8, ptr nonnull %3) #4
  ret i1 %.0
}